; Function Attrs: mustprogress uwtable
define hidden void @_ZN16propagate_values11updt_paramsERK10params_ref(ptr noundef nonnull align 8 dereferenceable(152) %this, ptr noundef nonnull align 8 dereferenceable(8) %p) unnamed_addr #3 align 2 personality ptr @__gxx_personality_v0 {
entry:
  %tp = alloca %struct.tactic_params, align 8
  store ptr %p, ptr %tp, align 8
  %g.i = getelementptr inbounds i8, ptr %tp, i64 8
  call void @_ZN7gparams10get_moduleEPKc(ptr nonnull sret(%class.params_ref) align 8 %g.i, ptr noundef nonnull @.str.6)
  %0 = load ptr, ptr %tp, align 8
  %call.i4 = invoke noundef i32 @_ZNK10params_ref8get_uintEPKcRKS_j(ptr noundef nonnull align 8 dereferenceable(8) %0, ptr noundef nonnull @.str.7, ptr noundef nonnull align 8 dereferenceable(8) %g.i, i32 noundef 4)
          to label %invoke.cont unwind label %lpad

invoke.cont:                                      ; preds = %entry
  %call3 = invoke noundef i32 @_ZNK10params_ref8get_uintEPKcj(ptr noundef nonnull align 8 dereferenceable(8) %p, ptr noundef nonnull @.str.1, i32 noundef %call.i4)
          to label %invoke.cont2 unwind label %lpad

invoke.cont2:                                     ; preds = %invoke.cont
  %m_max_rounds = getelementptr inbounds i8, ptr %this, i64 52
  store i32 %call3, ptr %m_max_rounds, align 4
  %m_rewriter = getelementptr inbounds i8, ptr %this, i64 32
  invoke void @_ZN11th_rewriter11updt_paramsERK10params_ref(ptr noundef nonnull align 8 dereferenceable(16) %m_rewriter, ptr noundef nonnull align 8 dereferenceable(8) %p)
          to label %invoke.cont4 unwind label %lpad

invoke.cont4:                                     ; preds = %invoke.cont2
  call void @_ZN10params_refD1Ev(ptr noundef nonnull align 8 dereferenceable(8) %g.i) #12
  ret void

lpad:                                             ; preds = %entry, %invoke.cont2, %invoke.cont
  %1 = landingpad { ptr, i32 }
          cleanup
  call void @_ZN10params_refD1Ev(ptr noundef nonnull align 8 dereferenceable(8) %g.i) #12
  resume { ptr, i32 } %1
}